; Function Attrs: uwtable
define void @_ZThn192_N8proxygen15AsyncTimeoutSet7destroyEv(ptr noundef %this) unnamed_addr #11 align 2 {
entry:
  %tail_.i = getelementptr inbounds i8, ptr %this, i64 32
  %0 = load ptr, ptr %tail_.i, align 8
  %cmp.not2.i = icmp eq ptr %0, null
  br i1 %cmp.not2.i, label %while.end.i, label %while.body.i

while.body.i:                                     ; preds = %entry, %_ZN8proxygen15AsyncTimeoutSet8Callback13cancelTimeoutEv.exit.i
  %1 = phi ptr [ %8, %_ZN8proxygen15AsyncTimeoutSet8Callback13cancelTimeoutEv.exit.i ], [ %0, %entry ]
  %timeoutSet_.i.i = getelementptr inbounds i8, ptr %1, i64 24
  %2 = load ptr, ptr %timeoutSet_.i.i, align 8
  %cmp.i.i = icmp eq ptr %2, null
  br i1 %cmp.i.i, label %_ZN8proxygen15AsyncTimeoutSet8Callback13cancelTimeoutEv.exit.i, label %if.end.i.i

if.end.i.i:                                       ; preds = %while.body.i
  %next_.i.i.i = getelementptr inbounds i8, ptr %1, i64 40
  %3 = load ptr, ptr %next_.i.i.i, align 8
  %cmp.i.i.i = icmp eq ptr %3, null
  %prev_.i.i.i = getelementptr inbounds i8, ptr %1, i64 32
  %4 = load ptr, ptr %prev_.i.i.i, align 8
  %prev_4.i.i.i = getelementptr inbounds i8, ptr %3, i64 32
  %tail_.i.i.i = getelementptr inbounds i8, ptr %2, i64 224
  %prev_4.sink.i.i.i = select i1 %cmp.i.i.i, ptr %tail_.i.i.i, ptr %prev_4.i.i.i
  store ptr %4, ptr %prev_4.sink.i.i.i, align 8
  %cmp6.i.i.i = icmp eq ptr %4, null
  %5 = load ptr, ptr %next_.i.i.i, align 8
  br i1 %cmp6.i.i.i, label %if.then7.i.i.i, label %if.else11.i.i.i

if.then7.i.i.i:                                   ; preds = %if.end.i.i
  %6 = load ptr, ptr %timeoutSet_.i.i, align 8
  %head_.i.i.i = getelementptr inbounds i8, ptr %6, i64 216
  store ptr %5, ptr %head_.i.i.i, align 8
  %7 = load ptr, ptr %timeoutSet_.i.i, align 8
  tail call void @_ZN8proxygen15AsyncTimeoutSet11headChangedEv(ptr noundef nonnull align 8 dereferenceable(249) %7)
  br label %_ZN8proxygen15AsyncTimeoutSet8Callback17cancelTimeoutImplEv.exit.i.i

if.else11.i.i.i:                                  ; preds = %if.end.i.i
  %next_14.i.i.i = getelementptr inbounds i8, ptr %4, i64 40
  store ptr %5, ptr %next_14.i.i.i, align 8
  br label %_ZN8proxygen15AsyncTimeoutSet8Callback17cancelTimeoutImplEv.exit.i.i

_ZN8proxygen15AsyncTimeoutSet8Callback17cancelTimeoutImplEv.exit.i.i: ; preds = %if.else11.i.i.i, %if.then7.i.i.i
  tail call void @llvm.memset.p0.i64(ptr noundef nonnull align 8 dereferenceable(32) %timeoutSet_.i.i, i8 0, i64 32, i1 false)
  %.pre.i = load ptr, ptr %tail_.i, align 8
  br label %_ZN8proxygen15AsyncTimeoutSet8Callback13cancelTimeoutEv.exit.i

_ZN8proxygen15AsyncTimeoutSet8Callback13cancelTimeoutEv.exit.i: ; preds = %_ZN8proxygen15AsyncTimeoutSet8Callback17cancelTimeoutImplEv.exit.i.i, %while.body.i
  %8 = phi ptr [ %1, %while.body.i ], [ %.pre.i, %_ZN8proxygen15AsyncTimeoutSet8Callback17cancelTimeoutImplEv.exit.i.i ]
  %cmp.not.i = icmp eq ptr %8, null
  br i1 %cmp.not.i, label %while.end.i, label %while.body.i, !llvm.loop !8

while.end.i:                                      ; preds = %_ZN8proxygen15AsyncTimeoutSet8Callback13cancelTimeoutEv.exit.i, %entry
  %guardCount_.i.i.i = getelementptr inbounds i8, ptr %this, i64 8
  %9 = load i32, ptr %guardCount_.i.i.i, align 8
  %cmp.not.i.i = icmp eq i32 %9, 0
  br i1 %cmp.not.i.i, label %if.else.i.i, label %if.then.i.i

if.then.i.i:                                      ; preds = %while.end.i
  %destroyPending_.i.i = getelementptr inbounds i8, ptr %this, i64 12
  store i8 1, ptr %destroyPending_.i.i, align 4
  br label %_ZN8proxygen15AsyncTimeoutSet7destroyEv.exit

if.else.i.i:                                      ; preds = %while.end.i
  %vtable.i.i = load ptr, ptr %this, align 8
  %vfn.i.i = getelementptr inbounds i8, ptr %vtable.i.i, i64 16
  %10 = load ptr, ptr %vfn.i.i, align 8
  tail call void %10(ptr noundef nonnull align 8 dereferenceable(13) %this, i1 noundef zeroext false)
  br label %_ZN8proxygen15AsyncTimeoutSet7destroyEv.exit

_ZN8proxygen15AsyncTimeoutSet7destroyEv.exit:     ; preds = %if.then.i.i, %if.else.i.i
  ret void
}